target datalayout = "e-m:e-p270:32:32-p271:32:32-p272:64:64-i64:64-i128:128-f80:128-n8:16:32:64-S128"
target triple = "x86_64-pc-linux-gnu"

%struct.slurm_conf_t = type { i64, ptr, i16, ptr, ptr, ptr, ptr, ptr, i16, ptr, ptr, ptr, ptr, ptr, ptr, ptr, i16, ptr, ptr, ptr, ptr, i16, ptr, ptr, ptr, i64, ptr, ptr, ptr, ptr, i16, ptr, ptr, i16, i32, ptr, i32, ptr, i32, i32, ptr, ptr, i64, i64, ptr, i16, i16, ptr, i32, i32, ptr, i32, ptr, i32, i16, i16, i16, ptr, i16, i16, ptr, ptr, i32, i16, i16, ptr, i32, i16, ptr, ptr, ptr, ptr, i16, ptr, ptr, ptr, ptr, i32, ptr, ptr, ptr, ptr, i16, i16, ptr, i32, i32, i32, i16, i16, ptr, ptr, i16, ptr, ptr, i32, i32, i32, i32, i32, i64, i32, i32, i16, ptr, ptr, i32, ptr, ptr, ptr, i16, i32, ptr, ptr, i16, ptr, ptr, i32, i16, ptr, ptr, ptr, ptr, i32, i32, i16, i16, i32, ptr, i16, ptr, i32, i32, i32, i32, i32, i32, ptr, i16, ptr, ptr, i32, i16, ptr, i32, i16, i16, ptr, ptr, ptr, i16, ptr, ptr, ptr, ptr, i16, i16, ptr, i16, ptr, i16, ptr, i16, ptr, i16, ptr, ptr, ptr, ptr, i16, ptr, ptr, ptr, i32, ptr, i32, ptr, ptr, i16, ptr, ptr, i32, i16, ptr, ptr, i16, i16, ptr, i16, ptr, ptr, ptr, i32, ptr, i16, i16, ptr, ptr, ptr, ptr, ptr, ptr, ptr, ptr, i16, i32, i16, ptr, ptr, ptr, ptr, i32, ptr, ptr, ptr, i16, ptr, ptr, ptr, i16, ptr, i16, ptr, i16, i16, ptr }

@slurm_get_auth_ttl.ttl = internal global i32 -1, align 4
@slurm_conf = external global %struct.slurm_conf_t, align 8
@.str.7 = private unnamed_addr constant [5 x i8] c"ttl=\00", align 1

; Function Attrs: inlinehint nounwind willreturn memory(read) uwtable
define available_externally i32 @atoi(ptr noundef nonnull %0) #6 {
  %2 = alloca ptr, align 8
  store ptr %0, ptr %2, align 8
  %3 = load ptr, ptr %2, align 8
  %4 = call i64 @strtol(ptr noundef %3, ptr noundef null, i32 noundef 10) #12
  %5 = trunc i64 %4 to i32
  ret i32 %5
}

; Function Attrs: nounwind uwtable
define dso_local i32 @slurm_get_auth_ttl() #0 {
  %1 = alloca i32, align 4
  %2 = alloca ptr, align 8
  %3 = alloca i32, align 4
  call void @llvm.lifetime.start.p0(i64 8, ptr %2) #12
  %4 = load i32, ptr @slurm_get_auth_ttl.ttl, align 4
  %5 = icmp sge i32 %4, 0
  br i1 %5, label %6, label %8

6:                                                ; preds = %0
  %7 = load i32, ptr @slurm_get_auth_ttl.ttl, align 4
  store i32 %7, ptr %1, align 4
  store i32 1, ptr %3, align 4
  br label %28

8:                                                ; preds = %0
  %9 = load ptr, ptr getelementptr inbounds nuw (%struct.slurm_conf_t, ptr @slurm_conf, i32 0, i32 18), align 8
  %10 = icmp ne ptr %9, null
  br i1 %10, label %12, label %11

11:                                               ; preds = %8
  store i32 0, ptr %1, align 4
  store i32 1, ptr %3, align 4
  br label %28

12:                                               ; preds = %8
  %13 = load ptr, ptr getelementptr inbounds nuw (%struct.slurm_conf_t, ptr @slurm_conf, i32 0, i32 18), align 8
  %14 = call ptr @strstr(ptr noundef %13, ptr noundef @.str.7) #13
  store ptr %14, ptr %2, align 8
  %15 = load ptr, ptr %2, align 8
  %16 = icmp ne ptr %15, null
  br i1 %16, label %17, label %25

17:                                               ; preds = %12
  %18 = load ptr, ptr %2, align 8
  %19 = getelementptr inbounds i8, ptr %18, i64 4
  %20 = call i32 @atoi(ptr noundef %19) #13
  store i32 %20, ptr @slurm_get_auth_ttl.ttl, align 4
  %21 = load i32, ptr @slurm_get_auth_ttl.ttl, align 4
  %22 = icmp slt i32 %21, 0
  br i1 %22, label %23, label %24

23:                                               ; preds = %17
  store i32 0, ptr @slurm_get_auth_ttl.ttl, align 4
  br label %24

24:                                               ; preds = %23, %17
  br label %26

25:                                               ; preds = %12
  store i32 0, ptr @slurm_get_auth_ttl.ttl, align 4
  br label %26

26:                                               ; preds = %25, %24
  %27 = load i32, ptr @slurm_get_auth_ttl.ttl, align 4
  store i32 %27, ptr %1, align 4
  store i32 1, ptr %3, align 4
  br label %28

28:                                               ; preds = %26, %11, %6
  call void @llvm.lifetime.end.p0(i64 8, ptr %2) #12
  %29 = load i32, ptr %1, align 4
  ret i32 %29
}