; Function Attrs: mustprogress nofree nounwind willreturn uwtable
define dso_local range(i32 0, -2147483648) i32 @slurm_get_auth_ttl() local_unnamed_addr #7 {
  %1 = load i32, ptr @slurm_get_auth_ttl.ttl, align 4
  %2 = icmp sgt i32 %1, -1
  br i1 %2, label %12, label %3

3:                                                ; preds = %0
  %4 = load ptr, ptr getelementptr inbounds nuw (i8, ptr @slurm_conf, i64 144), align 8
  %.not = icmp eq ptr %4, null
  br i1 %.not, label %12, label %5

5:                                                ; preds = %3
  %6 = tail call ptr @strstr(ptr noundef nonnull dereferenceable(1) %4, ptr noundef nonnull dereferenceable(1) @.str.7) #20
  %.not5 = icmp eq ptr %6, null
  br i1 %.not5, label %11, label %7

7:                                                ; preds = %5
  %8 = getelementptr inbounds nuw i8, ptr %6, i64 4
  %9 = tail call i64 @strtol(ptr noundef nonnull captures(none) %8, ptr noundef null, i32 noundef 10) #19
  %10 = trunc i64 %9 to i32
  %spec.store.select = tail call i32 @llvm.smax.i32(i32 %10, i32 0)
  br label %11

11:                                               ; preds = %5, %7
  %storemerge = phi i32 [ %spec.store.select, %7 ], [ 0, %5 ]
  store i32 %storemerge, ptr @slurm_get_auth_ttl.ttl, align 4
  br label %12

12:                                               ; preds = %3, %0, %11
  %.0 = phi i32 [ %storemerge, %11 ], [ %1, %0 ], [ 0, %3 ]
  ret i32 %.0
}